target datalayout = "e-m:e-p270:32:32-p271:32:32-p272:64:64-i64:64-i128:128-f80:128-n8:16:32:64-S128"
target triple = "x86_64-pc-linux-gnu"

%struct.snort_session_t = type { i8, i8, i32, i32, i32, i32, ptr, ptr, ptr, ptr }

@.str.158 = private unnamed_addr constant [35 x i8] c"Errrrmm snort_reaper() %ld != %ld\0A\00", align 1

; Function Attrs: null_pointer_is_valid sspstrong uwtable
define internal void @snort_reaper(i32 noundef %0, i32 noundef %1, ptr noundef %2) #1 {
  %4 = alloca i32, align 4
  %5 = alloca i32, align 4
  %6 = alloca ptr, align 8
  %7 = alloca ptr, align 8
  store i32 %0, ptr %4, align 4
  store i32 %1, ptr %5, align 4
  store ptr %2, ptr %6, align 8
  call void @llvm.lifetime.start.p0(i64 8, ptr %7) #15
  %8 = load ptr, ptr %6, align 8
  store ptr %8, ptr %7, align 8
  %9 = load ptr, ptr %7, align 8
  %10 = getelementptr inbounds nuw %struct.snort_session_t, ptr %9, i32 0, i32 0
  %11 = load i8, ptr %10, align 8, !range !6, !noundef !7
  %12 = trunc i8 %11 to i1
  br i1 %12, label %13, label %24

13:                                               ; preds = %3
  %14 = load ptr, ptr %7, align 8
  %15 = getelementptr inbounds nuw %struct.snort_session_t, ptr %14, i32 0, i32 2
  %16 = load i32, ptr %15, align 4
  %17 = load i32, ptr %4, align 4
  %18 = icmp eq i32 %16, %17
  br i1 %18, label %19, label %24

19:                                               ; preds = %13
  %20 = load ptr, ptr %7, align 8
  %21 = getelementptr inbounds nuw %struct.snort_session_t, ptr %20, i32 0, i32 0
  store i8 0, ptr %21, align 8
  %22 = load ptr, ptr %7, align 8
  %23 = getelementptr inbounds nuw %struct.snort_session_t, ptr %22, i32 0, i32 1
  store i8 0, ptr %23, align 1
  br label %31

24:                                               ; preds = %13, %3
  %25 = load ptr, ptr %7, align 8
  %26 = getelementptr inbounds nuw %struct.snort_session_t, ptr %25, i32 0, i32 2
  %27 = load i32, ptr %26, align 4
  %28 = sext i32 %27 to i64
  %29 = load i32, ptr %4, align 4
  %30 = sext i32 %29 to i64
  call void (ptr, ...) @g_print(ptr noundef @.str.158, i64 noundef %28, i64 noundef %30)
  br label %31

31:                                               ; preds = %24, %19
  %32 = load i32, ptr %4, align 4
  call void @g_spawn_close_pid(i32 noundef %32)
  call void @llvm.lifetime.end.p0(i64 8, ptr %7) #15
  ret void
}