; Function Attrs: null_pointer_is_valid sspstrong uwtable
define internal void @snort_reaper(i32 noundef %0, i32 %1, ptr noundef captures(none) %2) #1 {
  %4 = load i8, ptr %2, align 8, !range !8, !noundef !9
  %5 = trunc nuw i8 %4 to i1
  %6 = getelementptr inbounds nuw i8, ptr %2, i64 4
  %7 = load i32, ptr %6, align 4
  %8 = icmp eq i32 %7, %0
  %or.cond = select i1 %5, i1 %8, i1 false
  br i1 %or.cond, label %9, label %._crit_edge

9:                                                ; preds = %3
  store i8 0, ptr %2, align 8
  %10 = getelementptr inbounds nuw i8, ptr %2, i64 1
  store i8 0, ptr %10, align 1
  br label %13

._crit_edge:                                      ; preds = %3
  %11 = sext i32 %7 to i64
  %12 = sext i32 %0 to i64
  tail call void (ptr, ...) @g_print(ptr noundef nonnull @.str.158, i64 noundef %11, i64 noundef %12)
  br label %13

13:                                               ; preds = %._crit_edge, %9
  tail call void @g_spawn_close_pid(i32 noundef %0)
  ret void
}